target datalayout = "e-m:e-p270:32:32-p271:32:32-p272:64:64-i64:64-i128:128-f80:128-n8:16:32:64-S128"
target triple = "x86_64-pc-linux-gnu"

%class.params_ref = type { ptr }
%class.macro_util = type { ptr, %class.bv_util, %class.arith_util, %class.arith_rewriter, %class.bv_rewriter, ptr, ptr }
%class.bv_util = type { %class.bv_recognizers, ptr, ptr }
%class.bv_recognizers = type { i32 }
%class.arith_util = type { ptr, ptr }
%class.arith_rewriter = type { %class.poly_rewriter.base, i8, i8, i8, i8, i8, i8, i8, i8, i32 }
%class.poly_rewriter.base = type <{ %class.arith_rewriter_core.base, [5 x i8], ptr, %class.obj_map, i8, i8, [2 x i8], i32, i8, i8, i8, i8 }>
%class.arith_rewriter_core.base = type <{ ptr, %class.arith_util, %class.scoped_ptr, i8, i8, i8 }>
%class.scoped_ptr = type { ptr }
%class.obj_map = type { %class.core_hashtable }
%class.core_hashtable = type <{ ptr, i32, i32, i32, [4 x i8] }>
%class.bv_rewriter = type <{ %class.poly_rewriter.base.1, [4 x i8], %class.mk_extract_proc, %class.arith_util, i8, i8, i8, i8, i8, i8, i8, i8, i8, i8, i8, i8, i8, [3 x i8] }>
%class.poly_rewriter.base.1 = type <{ %class.bv_rewriter_core, ptr, %class.obj_map, i8, i8, [2 x i8], i32, i8, i8, i8, i8 }>
%class.bv_rewriter_core = type { ptr, %class.bv_util, %class.obj_ref }
%class.obj_ref = type { ptr, ptr }
%class.mk_extract_proc = type { ptr, i32, i32, ptr, ptr }

; Function Attrs: mustprogress nounwind uwtable
define linkonce_odr hidden void @_ZN10params_refC2Ev(ptr noundef nonnull align 8 dereferenceable(8) %0) unnamed_addr #7 comdat align 2 {
  %2 = alloca ptr, align 8
  store ptr %0, ptr %2, align 8, !tbaa !38
  %3 = load ptr, ptr %2, align 8
  %4 = getelementptr inbounds nuw %class.params_ref, ptr %3, i32 0, i32 0
  store ptr null, ptr %4, align 8, !tbaa !40
  ret void
}

; Function Attrs: mustprogress uwtable
define hidden void @_ZN10macro_utilC2ER11ast_manager(ptr noundef nonnull align 8 dereferenceable(320) %0, ptr noundef nonnull align 8 dereferenceable(976) %1) unnamed_addr #4 align 2 personality ptr @__gxx_personality_v0 {
  %3 = alloca ptr, align 8
  %4 = alloca ptr, align 8
  %5 = alloca %class.params_ref, align 8
  %6 = alloca ptr, align 8
  %7 = alloca i32, align 4
  %8 = alloca %class.params_ref, align 8
  store ptr %0, ptr %3, align 8, !tbaa !3
  store ptr %1, ptr %4, align 8, !tbaa !8
  %9 = load ptr, ptr %3, align 8
  %10 = getelementptr inbounds nuw %class.macro_util, ptr %9, i32 0, i32 0
  %11 = load ptr, ptr %4, align 8, !tbaa !8
  store ptr %11, ptr %10, align 8, !tbaa !8
  %12 = getelementptr inbounds nuw %class.macro_util, ptr %9, i32 0, i32 1
  %13 = load ptr, ptr %4, align 8, !tbaa !8
  call void @_ZN7bv_utilC1ER11ast_manager(ptr noundef nonnull align 8 dereferenceable(24) %12, ptr noundef nonnull align 8 dereferenceable(976) %13)
  %14 = getelementptr inbounds nuw %class.macro_util, ptr %9, i32 0, i32 2
  %15 = load ptr, ptr %4, align 8, !tbaa !8
  call void @_ZN10arith_utilC1ER11ast_manager(ptr noundef nonnull align 8 dereferenceable(16) %14, ptr noundef nonnull align 8 dereferenceable(976) %15)
  %16 = getelementptr inbounds nuw %class.macro_util, ptr %9, i32 0, i32 3
  %17 = load ptr, ptr %4, align 8, !tbaa !8
  call void @llvm.lifetime.start.p0(i64 8, ptr %5) #3
  call void @llvm.memset.p0.i64(ptr align 8 %5, i8 0, i64 8, i1 false)
  call void @_ZN10params_refC2Ev(ptr noundef nonnull align 8 dereferenceable(8) %5) #3
  invoke void @_ZN14arith_rewriterC2ER11ast_managerRK10params_ref(ptr noundef nonnull align 8 dereferenceable(96) %16, ptr noundef nonnull align 8 dereferenceable(976) %17, ptr noundef nonnull align 8 dereferenceable(8) %5)
          to label %18 unwind label %24

18:                                               ; preds = %2
  call void @_ZN10params_refD1Ev(ptr noundef nonnull align 8 dereferenceable(8) %5) #3
  call void @llvm.lifetime.end.p0(i64 8, ptr %5) #3
  %19 = getelementptr inbounds nuw %class.macro_util, ptr %9, i32 0, i32 4
  %20 = load ptr, ptr %4, align 8, !tbaa !8
  call void @llvm.lifetime.start.p0(i64 8, ptr %8) #3
  call void @llvm.memset.p0.i64(ptr align 8 %8, i8 0, i64 8, i1 false)
  call void @_ZN10params_refC2Ev(ptr noundef nonnull align 8 dereferenceable(8) %8) #3
  invoke void @_ZN11bv_rewriterC2ER11ast_managerRK10params_ref(ptr noundef nonnull align 8 dereferenceable(157) %19, ptr noundef nonnull align 8 dereferenceable(976) %20, ptr noundef nonnull align 8 dereferenceable(8) %8)
          to label %21 unwind label %28

21:                                               ; preds = %18
  call void @_ZN10params_refD1Ev(ptr noundef nonnull align 8 dereferenceable(8) %8) #3
  call void @llvm.lifetime.end.p0(i64 8, ptr %8) #3
  %22 = getelementptr inbounds nuw %class.macro_util, ptr %9, i32 0, i32 5
  store ptr null, ptr %22, align 8, !tbaa !10
  %23 = getelementptr inbounds nuw %class.macro_util, ptr %9, i32 0, i32 6
  store ptr null, ptr %23, align 8, !tbaa !37
  ret void

24:                                               ; preds = %2
  %25 = landingpad { ptr, i32 }
          cleanup
  %26 = extractvalue { ptr, i32 } %25, 0
  store ptr %26, ptr %6, align 8
  %27 = extractvalue { ptr, i32 } %25, 1
  store i32 %27, ptr %7, align 4
  call void @_ZN10params_refD1Ev(ptr noundef nonnull align 8 dereferenceable(8) %5) #3
  call void @llvm.lifetime.end.p0(i64 8, ptr %5) #3
  br label %32

28:                                               ; preds = %18
  %29 = landingpad { ptr, i32 }
          cleanup
  %30 = extractvalue { ptr, i32 } %29, 0
  store ptr %30, ptr %6, align 8
  %31 = extractvalue { ptr, i32 } %29, 1
  store i32 %31, ptr %7, align 4
  call void @_ZN10params_refD1Ev(ptr noundef nonnull align 8 dereferenceable(8) %8) #3
  call void @llvm.lifetime.end.p0(i64 8, ptr %8) #3
  call void @_ZN13poly_rewriterI19arith_rewriter_coreED2Ev(ptr noundef nonnull align 8 dereferenceable(96) %16) #3
  br label %32

32:                                               ; preds = %28, %24
  %33 = load ptr, ptr %6, align 8
  %34 = load i32, ptr %7, align 4
  %35 = insertvalue { ptr, i32 } poison, ptr %33, 0
  %36 = insertvalue { ptr, i32 } %35, i32 %34, 1
  resume { ptr, i32 } %36
}