; Function Attrs: mustprogress uwtable
define hidden void @_ZN10macro_utilC2ER11ast_manager(ptr noundef nonnull align 8 dereferenceable(320) initializes((0, 8)) %0, ptr noundef nonnull align 8 dereferenceable(976) %1) unnamed_addr #3 align 2 personality ptr @__gxx_personality_v0 {
  %3 = alloca %class.params_ref, align 8
  %4 = alloca %class.params_ref, align 8
  store ptr %1, ptr %0, align 8, !tbaa !3
  %5 = getelementptr inbounds nuw i8, ptr %0, i64 8
  tail call void @_ZN7bv_utilC1ER11ast_manager(ptr noundef nonnull align 8 dereferenceable(24) %5, ptr noundef nonnull align 8 dereferenceable(976) %1)
  %6 = getelementptr inbounds nuw i8, ptr %0, i64 32
  tail call void @_ZN10arith_utilC1ER11ast_manager(ptr noundef nonnull align 8 dereferenceable(16) %6, ptr noundef nonnull align 8 dereferenceable(976) %1)
  %7 = getelementptr inbounds nuw i8, ptr %0, i64 48
  call void @llvm.lifetime.start.p0(i64 8, ptr nonnull %3) #22
  store ptr null, ptr %3, align 8, !tbaa !8
  invoke void @_ZN14arith_rewriterC2ER11ast_managerRK10params_ref(ptr noundef nonnull align 8 dereferenceable(96) %7, ptr noundef nonnull align 8 dereferenceable(976) %1, ptr noundef nonnull align 8 dereferenceable(8) %3)
          to label %8 unwind label %12

8:                                                ; preds = %2
  call void @_ZN10params_refD1Ev(ptr noundef nonnull align 8 dereferenceable(8) %3) #22
  call void @llvm.lifetime.end.p0(i64 8, ptr nonnull %3) #22
  %9 = getelementptr inbounds nuw i8, ptr %0, i64 144
  call void @llvm.lifetime.start.p0(i64 8, ptr nonnull %4) #22
  store ptr null, ptr %4, align 8, !tbaa !8
  invoke void @_ZN11bv_rewriterC2ER11ast_managerRK10params_ref(ptr noundef nonnull align 8 dereferenceable(157) %9, ptr noundef nonnull align 8 dereferenceable(976) %1, ptr noundef nonnull align 8 dereferenceable(8) %4)
          to label %10 unwind label %14

10:                                               ; preds = %8
  call void @_ZN10params_refD1Ev(ptr noundef nonnull align 8 dereferenceable(8) %4) #22
  call void @llvm.lifetime.end.p0(i64 8, ptr nonnull %4) #22
  %11 = getelementptr inbounds nuw i8, ptr %0, i64 304
  call void @llvm.memset.p0.i64(ptr noundef nonnull align 8 dereferenceable(16) %11, i8 0, i64 16, i1 false)
  ret void

12:                                               ; preds = %2
  %13 = landingpad { ptr, i32 }
          cleanup
  call void @_ZN10params_refD1Ev(ptr noundef nonnull align 8 dereferenceable(8) %3) #22
  call void @llvm.lifetime.end.p0(i64 8, ptr nonnull %3) #22
  br label %16

14:                                               ; preds = %8
  %15 = landingpad { ptr, i32 }
          cleanup
  call void @_ZN10params_refD1Ev(ptr noundef nonnull align 8 dereferenceable(8) %4) #22
  call void @llvm.lifetime.end.p0(i64 8, ptr nonnull %4) #22
  call void @_ZN13poly_rewriterI19arith_rewriter_coreED2Ev(ptr noundef nonnull align 8 dereferenceable(96) %7) #22
  br label %16

16:                                               ; preds = %14, %12
  %.pn = phi { ptr, i32 } [ %15, %14 ], [ %13, %12 ]
  resume { ptr, i32 } %.pn
}